******************************************************************************
               TMS320C6x Linker PC v7.4.2                      
******************************************************************************
>> Linked Fri Dec 12 00:43:24 2014

OUTPUT FILE NAME:   <attempt_2.out>
ENTRY POINT SYMBOL: "_c_int00"  address: 00004120


MEMORY CONFIGURATION

         name            origin    length      used     unused   attr    fill
----------------------  --------  ---------  --------  --------  ----  --------
  VECS                  00000000   00000200  00000200  00000000  RWIX
  IRAM                  00000200   0002fe00  000088e0  00027520  RWIX
  L2RAM                 00030000   00010000  00000000  00010000  RWIX
  EMIFCE0               80000000   10000000  00000000  10000000  RWIX
  EMIFCE1               90000000   10000000  00000000  10000000  RWIX
  EMIFCE2               a0000000   10000000  00000000  10000000  RWIX
  EMIFCE3               b0000000   10000000  00000000  10000000  RWIX


SECTION ALLOCATION MAP

 output                                  attributes/
section   page    origin      length       input sections
--------  ----  ----------  ----------   ----------------
vectors    0    00000000    00000200     
                  00000000    00000200     vectors.obj (vectors)

.pinit     0    00000200    00000000     UNINITIALIZED

.text      0    00000200    00004140     
                  00000200    00001280     attempt2.obj (.text)
                  00001480    00000480     dsk6713bsl.lib : dsk6713.obj (.text)
                  00001900    000003e0     attempt2.obj (.text:retain)
                  00001ce0    00000360     rts6700.lib : cos.obj (.text:_cos)
                  00002040    00000340                 : divf.obj (.text:__divf)
                  00002380    00000340                 : sin.obj (.text:_sin)
                  000026c0    00000300     dsk6713bsl.lib : dsk6713_aic23_opencodec.obj (.text)
                  000029c0    00000280     cfftr2_dit.obj (.text)
                  00002c40    00000240     rts6700.lib : memcpy62.obj (.text:_memcpy)
                  00002e80    00000240     digitrev_index.obj (.text)
                  000030c0    000001c0     csl6713.lib : csl_irq.obj (.text:_IRQ_map)
                  00003280    000001a0                 : csl_mcbsp.obj (.text:_MCBSP_reset)
                  00003420    000001a0     bitrev.obj (.text)
                  000035c0    00000140     dsk6713bsl.lib : dsk6713_aic23_registers.obj (.text)
                  00003700    00000120     rts6700.lib : divi.obj (.text:__divi)
                  00003820    00000100     csl6713.lib : csl_mcbsp.obj (.text:_MCBSP_open)
                  00003920    00000100                 : csl_mcbsp.obj (.text:_MCBSP_start)
                  00003a20    00000100     rts6700.lib : autoinit.obj (.text:__auto_init)
                  00003b20    000000e0                 : strasg.obj (.text:__strasg)
                  00003c00    000000e0                 : exit.obj (.text:_exit)
                  00003ce0    000000e0                 : modf.obj (.text:_modf)
                  00003dc0    000000c0                 : round.obj (.text:__nround)
                  00003e80    000000c0                 : cpy_tbl.obj (.text:_copy_in)
                  00003f40    000000c0     dsk6713bsl.lib : dsk6713_aic23_setfreq.obj (.text)
                  00004000    000000a0     csl6713.lib : csl_irq.obj (.text:_setMux)
                  000040a0    00000080     rts6700.lib : cpp_init.obj (.text:___TI_cpp_init)
                  00004120    00000080                 : boot.obj (.text:_c_int00)
                  000041a0    00000040     csl6713.lib : csl_irq.obj (.text:_IRQ_enable)
                  000041e0    00000040     rts6700.lib : args_main.obj (.text:__args_main)
                  00004220    00000040                 : trunc.obj (.text:__trunc)
                  00004260    00000020     csl6713.lib : csl_irq.obj (.text:_IRQ_globalDisable)
                  00004280    00000020                 : csl_irq.obj (.text:_IRQ_globalEnable)
                  000042a0    00000020                 : csl_irq.obj (.text:_IRQ_nmiEnable)
                  000042c0    00000020                 : csl_mcbsp.obj (.text:_MCBSP_read)
                  000042e0    00000020                 : csl_mcbsp.obj (.text:_MCBSP_write)
                  00004300    00000020     rts6700.lib : exit.obj (.text:_abort)
                  00004320    00000020     csl6713.lib : csl_irq.obj (.text)

.bss       0    00000200    00000000     UNINITIALIZED

.data      0    00000200    00000000     UNINITIALIZED

.far       0    00004340    00003e6c     UNINITIALIZED
                  00004340    00003c60     attempt2.obj (.far)
                  00007fa0    000000f4     csl6713.lib : csl_irq.obj (.far)
                  00008094    00000002     dsk6713bsl.lib : dsk6713.obj (.far)
                  00008096    00000002     --HOLE--
                  00008098    00000040     rts6700.lib : cos.obj (.far)
                  000080d8    00000040                 : sin.obj (.far)
                  00008118    00000038     csl6713.lib : csl_mcbsp.obj (.far)
                  00008150    00000028     dsk6713bsl.lib : dsk6713_aic23_registers.obj (.far)
                  00008178    00000020                    : dsk6713_aic23_setfreq.obj (.far)
                  00008198    0000000c     rts6700.lib : exit.obj (.far)
                  000081a4    00000008     dsk6713bsl.lib : dsk6713_aic23_opencodec.obj (.far)

.stack     0    000081b0    00000400     UNINITIALIZED
                  000081b0    00000008     rts6700.lib : boot.obj (.stack)
                  000081b8    000003f8     --HOLE--

.cinit     0    000085b0    00000404     
                  000085b0    0000015c     attempt2.obj (.cinit)
                  0000870c    00000004     --HOLE-- [fill = 0]
                  00008710    0000012c     csl6713.lib : csl_irq.obj (.cinit)
                  0000883c    00000004     --HOLE-- [fill = 0]
                  00008840    00000054                 : csl_mcbsp.obj (.cinit)
                  00008894    00000004     --HOLE-- [fill = 0]
                  00008898    00000048     rts6700.lib : cos.obj (.cinit)
                  000088e0    00000048                 : sin.obj (.cinit)
                  00008928    00000030     dsk6713bsl.lib : dsk6713_aic23_registers.obj (.cinit)
                  00008958    0000002c     rts6700.lib : exit.obj (.cinit)
                  00008984    00000004     --HOLE-- [fill = 0]
                  00008988    00000028     dsk6713bsl.lib : dsk6713_aic23_setfreq.obj (.cinit)
                  000089b0    00000004     --HOLE-- [fill = 0]

.const     0    000089b4    00000130     
                  000089b4    000000cc     attempt2.obj (.const:_B)
                  00008a80    00000040     dsk6713bsl.lib : dsk6713_aic23_opencodec.obj (.const)
                  00008ac0    00000020                    : dsk6713.obj (.const)
                  00008ae0    00000004     attempt2.obj (.const)


GLOBAL SYMBOLS: SORTED ALPHABETICALLY BY Name 

address    name
--------   ----
00000200   $bss
00000200   .bss
00000200   .data
00000200   .text
00004300   C$$EXIT
000089b4   _B
00008ae0   _BL
00004378   _DELTA
000081a4   _DSK6713_AIC23_codeccontrolhandle
000081a8   _DSK6713_AIC23_codecdatahandle
00003680   _DSK6713_AIC23_config
000026c0   _DSK6713_AIC23_openCodec
00003658   _DSK6713_AIC23_rget
000035c0   _DSK6713_AIC23_rset
00003f40   _DSK6713_AIC23_setFreq
00001894   _DSK6713_getVersion
000014cc   _DSK6713_init
000017e8   _DSK6713_rget
000017fc   _DSK6713_rset
00008094   _DSK6713_version
00001810   _DSK6713_wait
00001868   _DSK6713_waitusec
000041a0   _IRQ_enable
00004260   _IRQ_globalDisable
00004280   _IRQ_globalEnable
000030c0   _IRQ_map
000042a0   _IRQ_nmiEnable
00003820   _MCBSP_open
000042c0   _MCBSP_read
00003280   _MCBSP_reset
00003920   _MCBSP_start
000042e0   _MCBSP_write
00006d20   _PING
00007398   _PONG
00006518   _V
00007e10   _Z
0000808c   __IRQ_dispatchTable
00007fc8   __IRQ_eventTable
00004320   __IRQ_hookFetchPacket
0000804c   __IRQ_intTable
00008148   __MCBSP_hDev0
0000814c   __MCBSP_hDev1
000085b0   __STACK_END
00000400   __STACK_SIZE
00000001   __TI_args_main
000040a0   ___TI_cpp_init
000081a0   ___TI_enable_exit_profile_output
ffffffff   ___TI_pprof_out_hndl
ffffffff   ___TI_prof_data_size
ffffffff   ___TI_prof_data_start
ffffffff   ___binit__
00000200   ___bss__
ffffffff   ___c_args__
000085b0   ___cinit__
00000200   ___data__
00000200   ___edata__
00000200   ___end__
00004340   ___etext__
ffffffff   ___pinit__
00000200   ___text__
000041e0   __args_main
00003a20   __auto_init
00003700   __c6xabi_divi
00008198   __cleanup_ptr
00002040   __divf
00003700   __divi
0000819c   __dtors_ptr
00003dc0   __nround
000081b0   __stack
00003b20   __strasg
00004220   __trunc
00005d08   _a
00004300   _abort
00006510   _b
00003420   _bitrev
00006d18   _c
00004120   _c_int00
000029c0   _cfftr2_dit
00004344   _config
00003e80   _copy_in
00001ce0   _cos
00007390   _d
00002e80   _digitrev_index
00007a08   _e
00003c00   _exit
00004690   _h
00004340   _hCodec
00004684   _in
00000da8   _init
0000437c   _iw
0000447c   _ix
0000467c   _lflag
00000200   _main
00002c40   _memcpy
00003ce0   _modf
00004680   _n
00004688   _out
000051d0   _outputPING
00004e98   _outputPONG
0000436c   _pingFlag
00004370   _pingIndex
00005508   _pingU
0000436d   _pongFlag
00004374   _pongIndex
00005d10   _pongU
00001900   _serialPortRcvISR
00002380   _sin
00004e90   _stahp
00007a10   _w
ffffffff   binit
000085b0   cinit
00000200   edata
00000200   end
00004340   etext
ffffffff   pinit


GLOBAL SYMBOLS: SORTED BY Symbol Address 

address    name
--------   ----
00000001   __TI_args_main
00000200   $bss
00000200   .bss
00000200   .data
00000200   .text
00000200   ___bss__
00000200   ___data__
00000200   ___edata__
00000200   ___end__
00000200   ___text__
00000200   _main
00000200   edata
00000200   end
00000400   __STACK_SIZE
00000da8   _init
000014cc   _DSK6713_init
000017e8   _DSK6713_rget
000017fc   _DSK6713_rset
00001810   _DSK6713_wait
00001868   _DSK6713_waitusec
00001894   _DSK6713_getVersion
00001900   _serialPortRcvISR
00001ce0   _cos
00002040   __divf
00002380   _sin
000026c0   _DSK6713_AIC23_openCodec
000029c0   _cfftr2_dit
00002c40   _memcpy
00002e80   _digitrev_index
000030c0   _IRQ_map
00003280   _MCBSP_reset
00003420   _bitrev
000035c0   _DSK6713_AIC23_rset
00003658   _DSK6713_AIC23_rget
00003680   _DSK6713_AIC23_config
00003700   __c6xabi_divi
00003700   __divi
00003820   _MCBSP_open
00003920   _MCBSP_start
00003a20   __auto_init
00003b20   __strasg
00003c00   _exit
00003ce0   _modf
00003dc0   __nround
00003e80   _copy_in
00003f40   _DSK6713_AIC23_setFreq
000040a0   ___TI_cpp_init
00004120   _c_int00
000041a0   _IRQ_enable
000041e0   __args_main
00004220   __trunc
00004260   _IRQ_globalDisable
00004280   _IRQ_globalEnable
000042a0   _IRQ_nmiEnable
000042c0   _MCBSP_read
000042e0   _MCBSP_write
00004300   C$$EXIT
00004300   _abort
00004320   __IRQ_hookFetchPacket
00004340   ___etext__
00004340   _hCodec
00004340   etext
00004344   _config
0000436c   _pingFlag
0000436d   _pongFlag
00004370   _pingIndex
00004374   _pongIndex
00004378   _DELTA
0000437c   _iw
0000447c   _ix
0000467c   _lflag
00004680   _n
00004684   _in
00004688   _out
00004690   _h
00004e90   _stahp
00004e98   _outputPONG
000051d0   _outputPING
00005508   _pingU
00005d08   _a
00005d10   _pongU
00006510   _b
00006518   _V
00006d18   _c
00006d20   _PING
00007390   _d
00007398   _PONG
00007a08   _e
00007a10   _w
00007e10   _Z
00007fc8   __IRQ_eventTable
0000804c   __IRQ_intTable
0000808c   __IRQ_dispatchTable
00008094   _DSK6713_version
00008148   __MCBSP_hDev0
0000814c   __MCBSP_hDev1
00008198   __cleanup_ptr
0000819c   __dtors_ptr
000081a0   ___TI_enable_exit_profile_output
000081a4   _DSK6713_AIC23_codeccontrolhandle
000081a8   _DSK6713_AIC23_codecdatahandle
000081b0   __stack
000085b0   __STACK_END
000085b0   ___cinit__
000085b0   cinit
000089b4   _B
00008ae0   _BL
ffffffff   ___TI_pprof_out_hndl
ffffffff   ___TI_prof_data_size
ffffffff   ___TI_prof_data_start
ffffffff   ___binit__
ffffffff   ___c_args__
ffffffff   ___pinit__
ffffffff   binit
ffffffff   pinit

[115 symbols]
